target datalayout = "e-m:e-p270:32:32-p271:32:32-p272:64:64-i64:64-i128:128-f80:128-n8:16:32:64-S128"
target triple = "x86_64-pc-linux-gnu"

%"class.cv::reg::MapAffine" = type { %"class.cv::reg::Map", %"class.cv::Matx", %"class.cv::Vec" }
%"class.cv::reg::Map" = type { ptr }
%"class.cv::Matx" = type { [4 x double] }
%"class.cv::Vec" = type { %"class.cv::Matx.0" }
%"class.cv::Matx.0" = type { [2 x double] }
%"class.cv::Mat" = type { i32, i32, i32, i32, ptr, ptr, ptr, ptr, ptr, ptr, %"struct.cv::MatSize", %"struct.cv::MatStep" }
%"struct.cv::MatSize" = type { ptr }
%"struct.cv::MatStep" = type { ptr, [2 x i64] }
%"class.cv::_InputArray" = type { i32, ptr, %"class.cv::Size_" }
%"class.cv::Size_" = type { i32, i32 }

; Function Attrs: inlinehint mustprogress uwtable
define linkonce_odr hidden void @_ZNK2cv11_InputArray6getMatEi(ptr dead_on_unwind noalias writable sret(%"class.cv::Mat") align 8 %0, ptr noundef nonnull align 8 dereferenceable(24) %1, i32 noundef %2) #2 comdat align 2 {
  %4 = alloca ptr, align 8
  %5 = alloca ptr, align 8
  %6 = alloca i32, align 4
  store ptr %0, ptr %4, align 8
  store ptr %1, ptr %5, align 8, !tbaa !20
  store i32 %2, ptr %6, align 4, !tbaa !12
  %7 = load ptr, ptr %5, align 8
  %8 = call noundef i32 @_ZNK2cv11_InputArray4kindEv(ptr noundef nonnull align 8 dereferenceable(24) %7)
  %9 = icmp eq i32 %8, 65536
  br i1 %9, label %10, label %16

10:                                               ; preds = %3
  %11 = load i32, ptr %6, align 4, !tbaa !12
  %12 = icmp slt i32 %11, 0
  br i1 %12, label %13, label %16

13:                                               ; preds = %10
  %14 = getelementptr inbounds nuw %"class.cv::_InputArray", ptr %7, i32 0, i32 1
  %15 = load ptr, ptr %14, align 8, !tbaa !22
  call void @_ZN2cv3MatC1ERKS0_(ptr noundef nonnull align 8 dereferenceable(96) %0, ptr noundef nonnull align 8 dereferenceable(96) %15)
  br label %18

16:                                               ; preds = %10, %3
  %17 = load i32, ptr %6, align 4, !tbaa !12
  call void @_ZNK2cv11_InputArray7getMat_Ei(ptr dead_on_unwind writable sret(%"class.cv::Mat") align 8 %0, ptr noundef nonnull align 8 dereferenceable(24) %7, i32 noundef %17)
  br label %18

18:                                               ; preds = %16, %13
  ret void
}

; Function Attrs: inlinehint mustprogress nounwind uwtable
define linkonce_odr hidden void @_ZN2cv3reg3MapC2Ev(ptr noundef nonnull align 8 dereferenceable(8) %0) unnamed_addr #1 comdat align 2 {
  %2 = alloca ptr, align 8
  store ptr %0, ptr %2, align 8, !tbaa !10
  %3 = load ptr, ptr %2, align 8
  store ptr getelementptr inbounds inrange(-16, 56) ({ [9 x ptr] }, ptr @_ZTVN2cv3reg3MapE, i32 0, i32 0, i32 2), ptr %3, align 8, !tbaa !8
  ret void
}

; Function Attrs: mustprogress uwtable
define void @_ZN2cv3reg9MapAffineC2ERKNS_11_InputArrayES4_(ptr noundef nonnull align 8 dereferenceable(56) %0, ptr noundef nonnull align 8 dereferenceable(24) %1, ptr noundef nonnull align 8 dereferenceable(24) %2) unnamed_addr #0 align 2 personality ptr @__gxx_personality_v0 {
  %4 = alloca ptr, align 8
  %5 = alloca ptr, align 8
  %6 = alloca ptr, align 8
  %7 = alloca %"class.cv::Mat", align 8
  %8 = alloca ptr, align 8
  %9 = alloca i32, align 4
  %10 = alloca %"class.cv::Mat", align 8
  store ptr %0, ptr %4, align 8, !tbaa !3
  store ptr %1, ptr %5, align 8, !tbaa !20
  store ptr %2, ptr %6, align 8, !tbaa !20
  %11 = load ptr, ptr %4, align 8
  call void @_ZN2cv3reg3MapC2Ev(ptr noundef nonnull align 8 dereferenceable(8) %11) #15
  store ptr getelementptr inbounds inrange(-16, 56) ({ [9 x ptr] }, ptr @_ZTVN2cv3reg9MapAffineE, i32 0, i32 0, i32 2), ptr %11, align 8, !tbaa !8
  %12 = getelementptr inbounds nuw %"class.cv::reg::MapAffine", ptr %11, i32 0, i32 1
  call void @llvm.lifetime.start.p0(i64 96, ptr %7) #15
  %13 = load ptr, ptr %5, align 8, !tbaa !20
  invoke void @_ZNK2cv11_InputArray6getMatEi(ptr dead_on_unwind writable sret(%"class.cv::Mat") align 8 %7, ptr noundef nonnull align 8 dereferenceable(24) %13, i32 noundef -1)
          to label %14 unwind label %20

14:                                               ; preds = %3
  invoke void @_ZNK2cv3MatcvNS_4MatxIT_XT0_EXT1_EEEIdLi2ELi2EEEv(ptr dead_on_unwind writable sret(%"class.cv::Matx") align 8 %12, ptr noundef nonnull align 8 dereferenceable(96) %7)
          to label %15 unwind label %24

15:                                               ; preds = %14
  call void @_ZN2cv3MatD1Ev(ptr noundef nonnull align 8 dereferenceable(96) %7) #15
  call void @llvm.lifetime.end.p0(i64 96, ptr %7) #15
  %16 = getelementptr inbounds nuw %"class.cv::reg::MapAffine", ptr %11, i32 0, i32 2
  call void @llvm.lifetime.start.p0(i64 96, ptr %10) #15
  %17 = load ptr, ptr %6, align 8, !tbaa !20
  invoke void @_ZNK2cv11_InputArray6getMatEi(ptr dead_on_unwind writable sret(%"class.cv::Mat") align 8 %10, ptr noundef nonnull align 8 dereferenceable(24) %17, i32 noundef -1)
          to label %18 unwind label %29

18:                                               ; preds = %15
  invoke void @_ZNK2cv3MatcvNS_3VecIT_XT0_EEEIdLi2EEEv(ptr dead_on_unwind writable sret(%"class.cv::Vec") align 8 %16, ptr noundef nonnull align 8 dereferenceable(96) %10)
          to label %19 unwind label %33

19:                                               ; preds = %18
  call void @_ZN2cv3MatD1Ev(ptr noundef nonnull align 8 dereferenceable(96) %10) #15
  call void @llvm.lifetime.end.p0(i64 96, ptr %10) #15
  ret void

20:                                               ; preds = %3
  %21 = landingpad { ptr, i32 }
          cleanup
  %22 = extractvalue { ptr, i32 } %21, 0
  store ptr %22, ptr %8, align 8
  %23 = extractvalue { ptr, i32 } %21, 1
  store i32 %23, ptr %9, align 4
  br label %28

24:                                               ; preds = %14
  %25 = landingpad { ptr, i32 }
          cleanup
  %26 = extractvalue { ptr, i32 } %25, 0
  store ptr %26, ptr %8, align 8
  %27 = extractvalue { ptr, i32 } %25, 1
  store i32 %27, ptr %9, align 4
  call void @_ZN2cv3MatD1Ev(ptr noundef nonnull align 8 dereferenceable(96) %7) #15
  br label %28

28:                                               ; preds = %24, %20
  call void @llvm.lifetime.end.p0(i64 96, ptr %7) #15
  br label %38

29:                                               ; preds = %15
  %30 = landingpad { ptr, i32 }
          cleanup
  %31 = extractvalue { ptr, i32 } %30, 0
  store ptr %31, ptr %8, align 8
  %32 = extractvalue { ptr, i32 } %30, 1
  store i32 %32, ptr %9, align 4
  br label %37

33:                                               ; preds = %18
  %34 = landingpad { ptr, i32 }
          cleanup
  %35 = extractvalue { ptr, i32 } %34, 0
  store ptr %35, ptr %8, align 8
  %36 = extractvalue { ptr, i32 } %34, 1
  store i32 %36, ptr %9, align 4
  call void @_ZN2cv3MatD1Ev(ptr noundef nonnull align 8 dereferenceable(96) %10) #15
  br label %37

37:                                               ; preds = %33, %29
  call void @llvm.lifetime.end.p0(i64 96, ptr %10) #15
  br label %38

38:                                               ; preds = %37, %28
  call void @_ZN2cv3reg3MapD2Ev(ptr noundef nonnull align 8 dereferenceable(8) %11) #15
  br label %39

39:                                               ; preds = %38
  %40 = load ptr, ptr %8, align 8
  %41 = load i32, ptr %9, align 4
  %42 = insertvalue { ptr, i32 } poison, ptr %40, 0
  %43 = insertvalue { ptr, i32 } %42, i32 %41, 1
  resume { ptr, i32 } %43
}