; Function Attrs: mustprogress uwtable
define void @_ZN2cv3reg9MapAffineC2ERKNS_11_InputArrayES4_(ptr noundef nonnull align 8 dereferenceable(56) initializes((0, 8)) %0, ptr noundef nonnull align 8 dereferenceable(24) %1, ptr noundef nonnull align 8 dereferenceable(24) %2) unnamed_addr #2 align 2 personality ptr @__gxx_personality_v0 {
  %4 = alloca %"class.cv::Mat", align 8
  %5 = alloca %"class.cv::Mat", align 8
  store ptr getelementptr inbounds nuw inrange(-16, 56) (i8, ptr @_ZTVN2cv3reg9MapAffineE, i64 16), ptr %0, align 8, !tbaa !3
  call void @llvm.lifetime.start.p0(i64 96, ptr nonnull %4) #20
  %6 = invoke noundef i32 @_ZNK2cv11_InputArray4kindEv(ptr noundef nonnull align 8 dereferenceable(24) %1)
          to label %.noexc unwind label %22

.noexc:                                           ; preds = %3
  %7 = icmp eq i32 %6, 65536
  br i1 %7, label %8, label %11

8:                                                ; preds = %.noexc
  %9 = getelementptr inbounds nuw i8, ptr %1, i64 8
  %10 = load ptr, ptr %9, align 8, !tbaa !12, !noalias !17
  invoke void @_ZN2cv3MatC1ERKS0_(ptr noundef nonnull align 8 dereferenceable(96) %4, ptr noundef nonnull align 8 dereferenceable(96) %10)
          to label %_ZNK2cv11_InputArray6getMatEi.exit unwind label %22

11:                                               ; preds = %.noexc
  invoke void @_ZNK2cv11_InputArray7getMat_Ei(ptr dead_on_unwind nonnull writable sret(%"class.cv::Mat") align 8 %4, ptr noundef nonnull align 8 dereferenceable(24) %1, i32 noundef -1)
          to label %_ZNK2cv11_InputArray6getMatEi.exit unwind label %22

_ZNK2cv11_InputArray6getMatEi.exit:               ; preds = %8, %11
  %12 = getelementptr inbounds nuw i8, ptr %0, i64 8
  invoke void @_ZNK2cv3MatcvNS_4MatxIT_XT0_EXT1_EEEIdLi2ELi2EEEv(ptr dead_on_unwind nonnull writable sret(%"class.cv::Matx") align 8 %12, ptr noundef nonnull align 8 dereferenceable(96) %4)
          to label %13 unwind label %24

13:                                               ; preds = %_ZNK2cv11_InputArray6getMatEi.exit
  call void @_ZN2cv3MatD1Ev(ptr noundef nonnull align 8 dereferenceable(96) %4) #20
  call void @llvm.lifetime.end.p0(i64 96, ptr nonnull %4) #20
  call void @llvm.lifetime.start.p0(i64 96, ptr nonnull %5) #20
  %14 = invoke noundef i32 @_ZNK2cv11_InputArray4kindEv(ptr noundef nonnull align 8 dereferenceable(24) %2)
          to label %.noexc13 unwind label %27

.noexc13:                                         ; preds = %13
  %15 = icmp eq i32 %14, 65536
  br i1 %15, label %16, label %19

16:                                               ; preds = %.noexc13
  %17 = getelementptr inbounds nuw i8, ptr %2, i64 8
  %18 = load ptr, ptr %17, align 8, !tbaa !12, !noalias !20
  invoke void @_ZN2cv3MatC1ERKS0_(ptr noundef nonnull align 8 dereferenceable(96) %5, ptr noundef nonnull align 8 dereferenceable(96) %18)
          to label %_ZNK2cv11_InputArray6getMatEi.exit16 unwind label %27

19:                                               ; preds = %.noexc13
  invoke void @_ZNK2cv11_InputArray7getMat_Ei(ptr dead_on_unwind nonnull writable sret(%"class.cv::Mat") align 8 %5, ptr noundef nonnull align 8 dereferenceable(24) %2, i32 noundef -1)
          to label %_ZNK2cv11_InputArray6getMatEi.exit16 unwind label %27

_ZNK2cv11_InputArray6getMatEi.exit16:             ; preds = %16, %19
  %20 = getelementptr inbounds nuw i8, ptr %0, i64 40
  invoke void @_ZNK2cv3MatcvNS_3VecIT_XT0_EEEIdLi2EEEv(ptr dead_on_unwind nonnull writable sret(%"class.cv::Vec") align 8 %20, ptr noundef nonnull align 8 dereferenceable(96) %5)
          to label %21 unwind label %29

21:                                               ; preds = %_ZNK2cv11_InputArray6getMatEi.exit16
  call void @_ZN2cv3MatD1Ev(ptr noundef nonnull align 8 dereferenceable(96) %5) #20
  call void @llvm.lifetime.end.p0(i64 96, ptr nonnull %5) #20
  ret void

22:                                               ; preds = %11, %8, %3
  %23 = landingpad { ptr, i32 }
          cleanup
  br label %26

24:                                               ; preds = %_ZNK2cv11_InputArray6getMatEi.exit
  %25 = landingpad { ptr, i32 }
          cleanup
  call void @_ZN2cv3MatD1Ev(ptr noundef nonnull align 8 dereferenceable(96) %4) #20
  br label %26

26:                                               ; preds = %24, %22
  %.pn = phi { ptr, i32 } [ %25, %24 ], [ %23, %22 ]
  call void @llvm.lifetime.end.p0(i64 96, ptr nonnull %4) #20
  br label %32

27:                                               ; preds = %19, %16, %13
  %28 = landingpad { ptr, i32 }
          cleanup
  br label %31

29:                                               ; preds = %_ZNK2cv11_InputArray6getMatEi.exit16
  %30 = landingpad { ptr, i32 }
          cleanup
  call void @_ZN2cv3MatD1Ev(ptr noundef nonnull align 8 dereferenceable(96) %5) #20
  br label %31

31:                                               ; preds = %29, %27
  %.pn8 = phi { ptr, i32 } [ %30, %29 ], [ %28, %27 ]
  call void @llvm.lifetime.end.p0(i64 96, ptr nonnull %5) #20
  br label %32

32:                                               ; preds = %31, %26
  %.pn8.pn = phi { ptr, i32 } [ %.pn8, %31 ], [ %.pn, %26 ]
  call void @_ZN2cv3reg3MapD2Ev(ptr noundef nonnull align 8 dereferenceable(8) %0) #20
  resume { ptr, i32 } %.pn8.pn
}